target datalayout = "e-m:e-p270:32:32-p271:32:32-p272:64:64-i64:64-i128:128-f80:128-n8:16:32:64-S128"
target triple = "x86_64-pc-linux-gnu"

%"class.(anonymous namespace)::lemma_inductive_generalizer" = type { %"class.spacer::lemma_generalizer", ptr, %class.obj_ref, %"struct.(anonymous namespace)::lemma_inductive_generalizer::stats", i8, i8, [6 x i8], %"class.(anonymous namespace)::contains_array_op_proc", %class.check_pred, %class.ref_vector, ptr, ptr, i32, i32, %class.ptr_vector, %class.ref_vector }
%"class.spacer::lemma_generalizer" = type { ptr, ptr }
%class.obj_ref = type { ptr, ptr }
%"struct.(anonymous namespace)::lemma_inductive_generalizer::stats" = type { i32, i32, i32, [4 x i8], %class.stopwatch }
%class.stopwatch = type <{ %"class.std::chrono::time_point", %"class.std::chrono::duration", i8, [7 x i8] }>
%"class.std::chrono::time_point" = type { %"class.std::chrono::duration" }
%"class.std::chrono::duration" = type { i64 }
%"class.(anonymous namespace)::contains_array_op_proc" = type <{ %class.i_expr_pred, ptr, i32, [4 x i8] }>
%class.i_expr_pred = type { ptr }
%class.check_pred = type <{ ptr, %class.ast_mark, %class.ast_mark, %class.ref_vector, i8, [7 x i8] }>
%class.ast_mark = type { ptr, %class.obj_mark, %class.obj_mark.0 }
%class.obj_mark = type { [8 x i8], %class.bit_vector }
%class.bit_vector = type { i32, i32, ptr }
%class.obj_mark.0 = type { [8 x i8], %class.bit_vector }
%class.ptr_vector = type { %class.vector }
%class.vector = type { ptr }
%class.ref_vector = type { %class.ref_vector_core }
%class.ref_vector_core = type { %class.ref_manager_wrapper, %class.ptr_vector }
%class.ref_manager_wrapper = type { ptr }

; Function Attrs: noinline noreturn nounwind uwtable
define linkonce_odr hidden void @__clang_call_terminate(ptr noundef %0) #9 comdat {
  %2 = call ptr @__cxa_begin_catch(ptr %0) #3
  call void @_ZSt9terminatev() #18
  unreachable
}

; Function Attrs: mustprogress nounwind uwtable
define linkonce_odr hidden void @_ZNSt6chrono8durationIlSt5ratioILl1ELl1000000000EEEC2IlvEERKT_(ptr noundef nonnull align 8 dereferenceable(8) %0, ptr noundef nonnull align 8 dereferenceable(8) %1) unnamed_addr #5 comdat align 2 {
  %3 = alloca ptr, align 8
  %4 = alloca ptr, align 8
  store ptr %0, ptr %3, align 8, !tbaa !212
  store ptr %1, ptr %4, align 8, !tbaa !214
  %5 = load ptr, ptr %3, align 8
  %6 = getelementptr inbounds nuw %"class.std::chrono::duration", ptr %5, i32 0, i32 0
  %7 = load ptr, ptr %4, align 8, !tbaa !214
  %8 = load i64, ptr %7, align 8, !tbaa !211
  store i64 %8, ptr %6, align 8, !tbaa !215
  ret void
}

; Function Attrs: mustprogress nounwind uwtable
define linkonce_odr hidden noundef i64 @_ZNSt6chrono15duration_valuesIlE4zeroEv() #5 comdat align 2 {
  ret i64 0
}

; Function Attrs: mustprogress nounwind uwtable
define linkonce_odr hidden i64 @_ZNSt6chrono8durationIlSt5ratioILl1ELl1000000000EEE4zeroEv() #5 comdat align 2 personality ptr @__gxx_personality_v0 {
  %1 = alloca %"class.std::chrono::duration", align 8
  %2 = alloca i64, align 8
  call void @llvm.lifetime.start.p0(i64 8, ptr %2) #3
  %3 = call noundef i64 @_ZNSt6chrono15duration_valuesIlE4zeroEv() #3
  store i64 %3, ptr %2, align 8, !tbaa !211
  invoke void @_ZNSt6chrono8durationIlSt5ratioILl1ELl1000000000EEEC2IlvEERKT_(ptr noundef nonnull align 8 dereferenceable(8) %1, ptr noundef nonnull align 8 dereferenceable(8) %2)
          to label %4 unwind label %7

4:                                                ; preds = %0
  call void @llvm.lifetime.end.p0(i64 8, ptr %2) #3
  %5 = getelementptr inbounds nuw %"class.std::chrono::duration", ptr %1, i32 0, i32 0
  %6 = load i64, ptr %5, align 8
  ret i64 %6

7:                                                ; preds = %0
  %8 = landingpad { ptr, i32 }
          catch ptr null
  %9 = extractvalue { ptr, i32 } %8, 0
  call void @__clang_call_terminate(ptr %9) #18
  unreachable
}

; Function Attrs: mustprogress nounwind uwtable
define linkonce_odr hidden void @_ZN9stopwatch5resetEv(ptr noundef nonnull align 8 dereferenceable(17) %0) #5 comdat align 2 {
  %2 = alloca ptr, align 8
  %3 = alloca %"class.std::chrono::duration", align 8
  store ptr %0, ptr %2, align 8, !tbaa !202
  %4 = load ptr, ptr %2, align 8
  call void @llvm.lifetime.start.p0(i64 8, ptr %3) #3
  %5 = call i64 @_ZNSt6chrono8durationIlSt5ratioILl1ELl1000000000EEE4zeroEv() #3
  %6 = getelementptr inbounds nuw %"class.std::chrono::duration", ptr %3, i32 0, i32 0
  store i64 %5, ptr %6, align 8
  %7 = getelementptr inbounds nuw %class.stopwatch, ptr %4, i32 0, i32 1
  call void @llvm.memcpy.p0.p0.i64(ptr align 8 %7, ptr align 8 %3, i64 8, i1 false), !tbaa.struct !210
  call void @llvm.lifetime.end.p0(i64 8, ptr %3) #3
  ret void
}

; Function Attrs: mustprogress nounwind uwtable
define internal void @_ZN12_GLOBAL__N_127lemma_inductive_generalizer5stats5resetEv(ptr noundef nonnull align 8 dereferenceable(40) %0) #5 align 2 {
  %2 = alloca ptr, align 8
  store ptr %0, ptr %2, align 8, !tbaa !170
  %3 = load ptr, ptr %2, align 8
  %4 = getelementptr inbounds nuw %"struct.(anonymous namespace)::lemma_inductive_generalizer::stats", ptr %3, i32 0, i32 0
  store i32 0, ptr %4, align 8, !tbaa !205
  %5 = getelementptr inbounds nuw %"struct.(anonymous namespace)::lemma_inductive_generalizer::stats", ptr %3, i32 0, i32 1
  store i32 0, ptr %5, align 4, !tbaa !206
  %6 = getelementptr inbounds nuw %"struct.(anonymous namespace)::lemma_inductive_generalizer::stats", ptr %3, i32 0, i32 2
  store i32 0, ptr %6, align 8, !tbaa !207
  %7 = getelementptr inbounds nuw %"struct.(anonymous namespace)::lemma_inductive_generalizer::stats", ptr %3, i32 0, i32 4
  call void @_ZN9stopwatch5resetEv(ptr noundef nonnull align 8 dereferenceable(17) %7)
  ret void
}

; Function Attrs: mustprogress nounwind uwtable
define internal void @_ZN12_GLOBAL__N_127lemma_inductive_generalizer16reset_statisticsEv(ptr noundef nonnull align 8 dereferenceable(320) %0) unnamed_addr #5 align 2 {
  %2 = alloca ptr, align 8
  store ptr %0, ptr %2, align 8, !tbaa !12
  %3 = load ptr, ptr %2, align 8
  %4 = getelementptr inbounds nuw %"class.(anonymous namespace)::lemma_inductive_generalizer", ptr %3, i32 0, i32 3
  call void @_ZN12_GLOBAL__N_127lemma_inductive_generalizer5stats5resetEv(ptr noundef nonnull align 8 dereferenceable(40) %4)
  ret void
}