; Function Attrs: mustprogress nofree norecurse nosync nounwind willreturn memory(argmem: write) uwtable
define internal void @_ZN12_GLOBAL__N_127lemma_inductive_generalizer16reset_statisticsEv(ptr noundef nonnull writeonly align 8 captures(none) dereferenceable(320) initializes((40, 52), (64, 72)) %0) unnamed_addr #6 align 2 personality ptr @__gxx_personality_v0 {
  %2 = getelementptr inbounds nuw i8, ptr %0, i64 40
  store i32 0, ptr %2, align 8, !tbaa !136
  %3 = getelementptr inbounds nuw i8, ptr %0, i64 44
  store i32 0, ptr %3, align 4, !tbaa !138
  %4 = getelementptr inbounds nuw i8, ptr %0, i64 48
  store i32 0, ptr %4, align 8, !tbaa !139
  %5 = getelementptr inbounds nuw i8, ptr %0, i64 64
  store i64 0, ptr %5, align 8, !tbaa !180
  ret void
}